; Function Attrs: mustprogress nounwind uwtable
define internal fastcc void @_ZN12_GLOBAL__N_111StmtPrinter13PrintCallArgsEPN5clang8CallExprE(ptr noundef nonnull align 8 dereferenceable(80) %0, ptr noundef readonly captures(none) %1) unnamed_addr #0 align 2 {
  %3 = getelementptr inbounds nuw i8, ptr %1, i64 16
  %4 = load i32, ptr %3, align 8
  %invariant.gep = getelementptr inbounds nuw i8, ptr %1, i64 8
  %.not18 = icmp eq i32 %4, 0
  br i1 %.not18, label %._crit_edge, label %.lr.ph

.lr.ph:                                           ; preds = %2
  %5 = getelementptr inbounds nuw i8, ptr %0, i64 16
  br label %6

6:                                                ; preds = %.lr.ph, %_ZN12_GLOBAL__N_111StmtPrinter9PrintExprEPN5clang4ExprE.exit
  %.019 = phi i32 [ 0, %.lr.ph ], [ %66, %_ZN12_GLOBAL__N_111StmtPrinter9PrintExprEPN5clang4ExprE.exit ]
  %7 = load i32, ptr %1, align 8
  %8 = lshr i32 %7, 24
  %9 = zext nneg i32 %8 to i64
  %gep = getelementptr inbounds nuw i8, ptr %invariant.gep, i64 %9
  %10 = lshr i32 %7, 18
  %11 = and i32 %10, 1
  %12 = zext nneg i32 %11 to i64
  %13 = getelementptr inbounds nuw ptr, ptr %gep, i64 %12
  %14 = zext i32 %.019 to i64
  %15 = getelementptr inbounds nuw ptr, ptr %13, i64 %14
  %16 = load ptr, ptr %15, align 8
  %17 = load i8, ptr %16, align 8
  %18 = icmp eq i8 %17, 112
  br i1 %18, label %._crit_edge, label %19

19:                                               ; preds = %6
  %.not11 = icmp eq i32 %.019, 0
  br i1 %.not11, label %.split, label %.split10

.split10:                                         ; preds = %19
  %20 = load ptr, ptr %0, align 8
  %21 = getelementptr inbounds nuw i8, ptr %20, i64 24
  %22 = load ptr, ptr %21, align 8
  %23 = getelementptr inbounds nuw i8, ptr %20, i64 32
  %24 = load ptr, ptr %23, align 8
  %25 = ptrtoint ptr %22 to i64
  %26 = ptrtoint ptr %24 to i64
  %27 = sub i64 %25, %26
  %28 = icmp ult i64 %27, 2
  br i1 %28, label %29, label %31

29:                                               ; preds = %.split10
  %30 = tail call noundef nonnull align 8 dereferenceable(48) ptr @_ZN4llvm11raw_ostream5writeEPKcm(ptr noundef nonnull align 8 dereferenceable(48) %20, ptr noundef nonnull @.str.9, i64 noundef 2) #19
  br label %_ZN4llvm11raw_ostreamlsEPKc.exit

31:                                               ; preds = %.split10
  store i16 8236, ptr %24, align 1
  %32 = load ptr, ptr %23, align 8
  %33 = getelementptr inbounds nuw i8, ptr %32, i64 2
  store ptr %33, ptr %23, align 8
  br label %_ZN4llvm11raw_ostreamlsEPKc.exit

_ZN4llvm11raw_ostreamlsEPKc.exit:                 ; preds = %29, %31
  %34 = load i32, ptr %1, align 8
  %35 = lshr i32 %34, 24
  %36 = zext nneg i32 %35 to i64
  %gep17 = getelementptr inbounds nuw i8, ptr %invariant.gep, i64 %36
  %37 = lshr i32 %34, 18
  %38 = and i32 %37, 1
  %39 = zext nneg i32 %38 to i64
  %40 = getelementptr inbounds nuw ptr, ptr %gep17, i64 %39
  %41 = getelementptr inbounds nuw ptr, ptr %40, i64 %14
  br label %.split

.split:                                           ; preds = %19, %_ZN4llvm11raw_ostreamlsEPKc.exit
  %phi.call.in = phi ptr [ %41, %_ZN4llvm11raw_ostreamlsEPKc.exit ], [ %13, %19 ]
  %phi.call = load ptr, ptr %phi.call.in, align 8
  %.not.i = icmp eq ptr %phi.call, null
  br i1 %.not.i, label %51, label %42

42:                                               ; preds = %.split
  %43 = load ptr, ptr %5, align 8
  %.not.i15 = icmp eq ptr %43, null
  br i1 %.not.i15, label %50, label %44

44:                                               ; preds = %42
  %45 = load ptr, ptr %0, align 8
  %46 = load ptr, ptr %43, align 8
  %47 = getelementptr inbounds nuw i8, ptr %46, i64 16
  %48 = load ptr, ptr %47, align 8
  %49 = tail call noundef zeroext i1 %48(ptr noundef nonnull align 8 dereferenceable(8) %43, ptr noundef nonnull %phi.call, ptr noundef nonnull align 8 dereferenceable(48) %45) #19
  br i1 %49, label %_ZN12_GLOBAL__N_111StmtPrinter9PrintExprEPN5clang4ExprE.exit, label %50

50:                                               ; preds = %44, %42
  tail call fastcc void @_ZN5clang15StmtVisitorBaseISt11add_pointerN12_GLOBAL__N_111StmtPrinterEvJEE5VisitEPNS_4StmtE(ptr noundef nonnull align 8 dereferenceable(80) %0, ptr noundef nonnull %phi.call)
  br label %_ZN12_GLOBAL__N_111StmtPrinter9PrintExprEPN5clang4ExprE.exit

51:                                               ; preds = %.split
  %52 = load ptr, ptr %0, align 8
  %53 = getelementptr inbounds nuw i8, ptr %52, i64 24
  %54 = load ptr, ptr %53, align 8
  %55 = getelementptr inbounds nuw i8, ptr %52, i64 32
  %56 = load ptr, ptr %55, align 8
  %57 = ptrtoint ptr %54 to i64
  %58 = ptrtoint ptr %56 to i64
  %59 = sub i64 %57, %58
  %60 = icmp ult i64 %59, 11
  br i1 %60, label %61, label %63

61:                                               ; preds = %51
  %62 = tail call noundef nonnull align 8 dereferenceable(48) ptr @_ZN4llvm11raw_ostream5writeEPKcm(ptr noundef nonnull align 8 dereferenceable(48) %52, ptr noundef nonnull @.str.4, i64 noundef 11) #19
  br label %_ZN12_GLOBAL__N_111StmtPrinter9PrintExprEPN5clang4ExprE.exit

63:                                               ; preds = %51
  tail call void @llvm.memcpy.p0.p0.i64(ptr noundef nonnull align 1 dereferenceable(11) %56, ptr noundef nonnull align 1 dereferenceable(11) @.str.4, i64 11, i1 false)
  %64 = load ptr, ptr %55, align 8
  %65 = getelementptr inbounds nuw i8, ptr %64, i64 11
  store ptr %65, ptr %55, align 8
  br label %_ZN12_GLOBAL__N_111StmtPrinter9PrintExprEPN5clang4ExprE.exit

_ZN12_GLOBAL__N_111StmtPrinter9PrintExprEPN5clang4ExprE.exit: ; preds = %63, %61, %50, %44
  %66 = add nuw i32 %.019, 1
  %.not = icmp eq i32 %66, %4
  br i1 %.not, label %._crit_edge, label %6, !llvm.loop !96

._crit_edge:                                      ; preds = %_ZN12_GLOBAL__N_111StmtPrinter9PrintExprEPN5clang4ExprE.exit, %6, %2
  ret void
}